target datalayout = "e-m:e-p270:32:32-p271:32:32-p272:64:64-i64:64-i128:128-f80:128-n8:16:32:64-S128"
target triple = "x86_64-pc-linux-gnu"

%struct.fdt_header = type { i32, i32, i32, i32, i32, i32, i32, i32, i32, i32 }

; Function Attrs: inlinehint nounwind uwtable
define internal i32 @cpu_to_fdt32(i32 noundef %0) #2 {
  %2 = alloca i32, align 4
  store i32 %0, ptr %2, align 4, !tbaa !9
  %3 = getelementptr inbounds i8, ptr %2, i64 0
  %4 = load i8, ptr %3, align 4, !tbaa !16
  %5 = zext i8 %4 to i64
  %6 = shl i64 %5, 24
  %7 = getelementptr inbounds i8, ptr %2, i64 1
  %8 = load i8, ptr %7, align 1, !tbaa !16
  %9 = zext i8 %8 to i64
  %10 = shl i64 %9, 16
  %11 = or i64 %6, %10
  %12 = getelementptr inbounds i8, ptr %2, i64 2
  %13 = load i8, ptr %12, align 2, !tbaa !16
  %14 = zext i8 %13 to i64
  %15 = shl i64 %14, 8
  %16 = or i64 %11, %15
  %17 = getelementptr inbounds i8, ptr %2, i64 3
  %18 = load i8, ptr %17, align 1, !tbaa !16
  %19 = zext i8 %18 to i64
  %20 = or i64 %16, %19
  %21 = trunc i64 %20 to i32
  ret i32 %21
}

; Function Attrs: inlinehint nounwind uwtable
define internal i32 @fdt_data_size_(ptr noundef %0) #2 {
  %2 = alloca ptr, align 8
  store ptr %0, ptr %2, align 8, !tbaa !3
  %3 = load ptr, ptr %2, align 8, !tbaa !3
  %4 = getelementptr inbounds nuw %struct.fdt_header, ptr %3, i32 0, i32 3
  %5 = call i32 @fdt32_ld(ptr noundef %4)
  %6 = load ptr, ptr %2, align 8, !tbaa !3
  %7 = getelementptr inbounds nuw %struct.fdt_header, ptr %6, i32 0, i32 8
  %8 = call i32 @fdt32_ld(ptr noundef %7)
  %9 = add i32 %5, %8
  ret i32 %9
}

; Function Attrs: inlinehint nounwind uwtable
define internal void @fdt_set_off_dt_strings(ptr noundef %0, i32 noundef %1) #2 {
  %3 = alloca ptr, align 8
  %4 = alloca i32, align 4
  %5 = alloca ptr, align 8
  store ptr %0, ptr %3, align 8, !tbaa !3
  store i32 %1, ptr %4, align 4, !tbaa !9
  call void @llvm.lifetime.start.p0(i64 8, ptr %5) #7
  %6 = load ptr, ptr %3, align 8, !tbaa !3
  store ptr %6, ptr %5, align 8, !tbaa !36
  %7 = load i32, ptr %4, align 4, !tbaa !9
  %8 = call i32 @cpu_to_fdt32(i32 noundef %7)
  %9 = load ptr, ptr %5, align 8, !tbaa !36
  %10 = getelementptr inbounds nuw %struct.fdt_header, ptr %9, i32 0, i32 3
  store i32 %8, ptr %10, align 4, !tbaa !46
  call void @llvm.lifetime.end.p0(i64 8, ptr %5) #7
  ret void
}

; Function Attrs: inlinehint nounwind uwtable
define internal void @fdt_set_off_dt_struct(ptr noundef %0, i32 noundef %1) #2 {
  %3 = alloca ptr, align 8
  %4 = alloca i32, align 4
  %5 = alloca ptr, align 8
  store ptr %0, ptr %3, align 8, !tbaa !3
  store i32 %1, ptr %4, align 4, !tbaa !9
  call void @llvm.lifetime.start.p0(i64 8, ptr %5) #7
  %6 = load ptr, ptr %3, align 8, !tbaa !3
  store ptr %6, ptr %5, align 8, !tbaa !36
  %7 = load i32, ptr %4, align 4, !tbaa !9
  %8 = call i32 @cpu_to_fdt32(i32 noundef %7)
  %9 = load ptr, ptr %5, align 8, !tbaa !36
  %10 = getelementptr inbounds nuw %struct.fdt_header, ptr %9, i32 0, i32 2
  store i32 %8, ptr %10, align 4, !tbaa !45
  call void @llvm.lifetime.end.p0(i64 8, ptr %5) #7
  ret void
}

; Function Attrs: inlinehint nounwind uwtable
define internal i32 @fdt32_ld(ptr noundef %0) #2 {
  %2 = alloca ptr, align 8
  %3 = alloca ptr, align 8
  store ptr %0, ptr %2, align 8, !tbaa !27
  call void @llvm.lifetime.start.p0(i64 8, ptr %3) #7
  %4 = load ptr, ptr %2, align 8, !tbaa !27
  store ptr %4, ptr %3, align 8, !tbaa !17
  %5 = load ptr, ptr %3, align 8, !tbaa !17
  %6 = getelementptr inbounds i8, ptr %5, i64 0
  %7 = load i8, ptr %6, align 1, !tbaa !16
  %8 = zext i8 %7 to i32
  %9 = shl i32 %8, 24
  %10 = load ptr, ptr %3, align 8, !tbaa !17
  %11 = getelementptr inbounds i8, ptr %10, i64 1
  %12 = load i8, ptr %11, align 1, !tbaa !16
  %13 = zext i8 %12 to i32
  %14 = shl i32 %13, 16
  %15 = or i32 %9, %14
  %16 = load ptr, ptr %3, align 8, !tbaa !17
  %17 = getelementptr inbounds i8, ptr %16, i64 2
  %18 = load i8, ptr %17, align 1, !tbaa !16
  %19 = zext i8 %18 to i32
  %20 = shl i32 %19, 8
  %21 = or i32 %15, %20
  %22 = load ptr, ptr %3, align 8, !tbaa !17
  %23 = getelementptr inbounds i8, ptr %22, i64 3
  %24 = load i8, ptr %23, align 1, !tbaa !16
  %25 = zext i8 %24 to i32
  %26 = or i32 %21, %25
  call void @llvm.lifetime.end.p0(i64 8, ptr %3) #7
  ret i32 %26
}

; Function Attrs: nounwind uwtable
define internal i32 @fdt_splice_(ptr noundef %0, ptr noundef %1, i32 noundef %2, i32 noundef %3) #0 {
  %5 = alloca i32, align 4
  %6 = alloca ptr, align 8
  %7 = alloca ptr, align 8
  %8 = alloca i32, align 4
  %9 = alloca i32, align 4
  %10 = alloca ptr, align 8
  %11 = alloca ptr, align 8
  %12 = alloca i32, align 4
  store ptr %0, ptr %6, align 8, !tbaa !3
  store ptr %1, ptr %7, align 8, !tbaa !3
  store i32 %2, ptr %8, align 4, !tbaa !9
  store i32 %3, ptr %9, align 4, !tbaa !9
  call void @llvm.lifetime.start.p0(i64 8, ptr %10) #7
  %13 = load ptr, ptr %7, align 8, !tbaa !3
  store ptr %13, ptr %10, align 8, !tbaa !17
  call void @llvm.lifetime.start.p0(i64 8, ptr %11) #7
  %14 = load ptr, ptr %6, align 8, !tbaa !3
  %15 = load ptr, ptr %6, align 8, !tbaa !3
  %16 = call i32 @fdt_data_size_(ptr noundef %15)
  %17 = sext i32 %16 to i64
  %18 = getelementptr inbounds i8, ptr %14, i64 %17
  store ptr %18, ptr %11, align 8, !tbaa !17
  %19 = load ptr, ptr %10, align 8, !tbaa !17
  %20 = load i32, ptr %8, align 4, !tbaa !9
  %21 = sext i32 %20 to i64
  %22 = getelementptr inbounds i8, ptr %19, i64 %21
  %23 = load ptr, ptr %10, align 8, !tbaa !17
  %24 = icmp ult ptr %22, %23
  br i1 %24, label %32, label %25

25:                                               ; preds = %4
  %26 = load ptr, ptr %10, align 8, !tbaa !17
  %27 = load i32, ptr %8, align 4, !tbaa !9
  %28 = sext i32 %27 to i64
  %29 = getelementptr inbounds i8, ptr %26, i64 %28
  %30 = load ptr, ptr %11, align 8, !tbaa !17
  %31 = icmp ugt ptr %29, %30
  br i1 %31, label %32, label %33

32:                                               ; preds = %25, %4
  store i32 -4, ptr %5, align 4
  store i32 1, ptr %12, align 4
  br label %83

33:                                               ; preds = %25
  %34 = load ptr, ptr %10, align 8, !tbaa !17
  %35 = load ptr, ptr %6, align 8, !tbaa !3
  %36 = icmp ult ptr %34, %35
  br i1 %36, label %48, label %37

37:                                               ; preds = %33
  %38 = load ptr, ptr %11, align 8, !tbaa !17
  %39 = load i32, ptr %8, align 4, !tbaa !9
  %40 = sext i32 %39 to i64
  %41 = sub i64 0, %40
  %42 = getelementptr inbounds i8, ptr %38, i64 %41
  %43 = load i32, ptr %9, align 4, !tbaa !9
  %44 = sext i32 %43 to i64
  %45 = getelementptr inbounds i8, ptr %42, i64 %44
  %46 = load ptr, ptr %6, align 8, !tbaa !3
  %47 = icmp ult ptr %45, %46
  br i1 %47, label %48, label %49

48:                                               ; preds = %37, %33
  store i32 -4, ptr %5, align 4
  store i32 1, ptr %12, align 4
  br label %83

49:                                               ; preds = %37
  %50 = load ptr, ptr %11, align 8, !tbaa !17
  %51 = load i32, ptr %8, align 4, !tbaa !9
  %52 = sext i32 %51 to i64
  %53 = sub i64 0, %52
  %54 = getelementptr inbounds i8, ptr %50, i64 %53
  %55 = load i32, ptr %9, align 4, !tbaa !9
  %56 = sext i32 %55 to i64
  %57 = getelementptr inbounds i8, ptr %54, i64 %56
  %58 = load ptr, ptr %6, align 8, !tbaa !3
  %59 = load ptr, ptr %6, align 8, !tbaa !3
  %60 = getelementptr inbounds nuw %struct.fdt_header, ptr %59, i32 0, i32 1
  %61 = call i32 @fdt32_ld(ptr noundef %60)
  %62 = zext i32 %61 to i64
  %63 = getelementptr inbounds nuw i8, ptr %58, i64 %62
  %64 = icmp ugt ptr %57, %63
  br i1 %64, label %65, label %66

65:                                               ; preds = %49
  store i32 -3, ptr %5, align 4
  store i32 1, ptr %12, align 4
  br label %83

66:                                               ; preds = %49
  %67 = load ptr, ptr %10, align 8, !tbaa !17
  %68 = load i32, ptr %9, align 4, !tbaa !9
  %69 = sext i32 %68 to i64
  %70 = getelementptr inbounds i8, ptr %67, i64 %69
  %71 = load ptr, ptr %10, align 8, !tbaa !17
  %72 = load i32, ptr %8, align 4, !tbaa !9
  %73 = sext i32 %72 to i64
  %74 = getelementptr inbounds i8, ptr %71, i64 %73
  %75 = load ptr, ptr %11, align 8, !tbaa !17
  %76 = load ptr, ptr %10, align 8, !tbaa !17
  %77 = ptrtoint ptr %75 to i64
  %78 = ptrtoint ptr %76 to i64
  %79 = sub i64 %77, %78
  %80 = load i32, ptr %8, align 4, !tbaa !9
  %81 = sext i32 %80 to i64
  %82 = sub nsw i64 %79, %81
  call void @llvm.memmove.p0.p0.i64(ptr align 1 %70, ptr align 1 %74, i64 %82, i1 false)
  store i32 0, ptr %5, align 4
  store i32 1, ptr %12, align 4
  br label %83

83:                                               ; preds = %66, %65, %48, %32
  call void @llvm.lifetime.end.p0(i64 8, ptr %11) #7
  call void @llvm.lifetime.end.p0(i64 8, ptr %10) #7
  %84 = load i32, ptr %5, align 4
  ret i32 %84
}

; Function Attrs: nounwind uwtable
define internal i32 @fdt_splice_mem_rsv_(ptr noundef %0, ptr noundef %1, i32 noundef %2, i32 noundef %3) #0 {
  %5 = alloca i32, align 4
  %6 = alloca ptr, align 8
  %7 = alloca ptr, align 8
  %8 = alloca i32, align 4
  %9 = alloca i32, align 4
  %10 = alloca i32, align 4
  %11 = alloca i32, align 4
  %12 = alloca i32, align 4
  store ptr %0, ptr %6, align 8, !tbaa !3
  store ptr %1, ptr %7, align 8, !tbaa !11
  store i32 %2, ptr %8, align 4, !tbaa !9
  store i32 %3, ptr %9, align 4, !tbaa !9
  call void @llvm.lifetime.start.p0(i64 4, ptr %10) #7
  %13 = load i32, ptr %9, align 4, !tbaa !9
  %14 = load i32, ptr %8, align 4, !tbaa !9
  %15 = sub nsw i32 %13, %14
  %16 = sext i32 %15 to i64
  %17 = mul i64 %16, 16
  %18 = trunc i64 %17 to i32
  store i32 %18, ptr %10, align 4, !tbaa !9
  call void @llvm.lifetime.start.p0(i64 4, ptr %11) #7
  %19 = load ptr, ptr %6, align 8, !tbaa !3
  %20 = load ptr, ptr %7, align 8, !tbaa !11
  %21 = load i32, ptr %8, align 4, !tbaa !9
  %22 = sext i32 %21 to i64
  %23 = mul i64 %22, 16
  %24 = trunc i64 %23 to i32
  %25 = load i32, ptr %9, align 4, !tbaa !9
  %26 = sext i32 %25 to i64
  %27 = mul i64 %26, 16
  %28 = trunc i64 %27 to i32
  %29 = call i32 @fdt_splice_(ptr noundef %19, ptr noundef %20, i32 noundef %24, i32 noundef %28)
  store i32 %29, ptr %11, align 4, !tbaa !9
  %30 = load i32, ptr %11, align 4, !tbaa !9
  %31 = icmp ne i32 %30, 0
  br i1 %31, label %32, label %34

32:                                               ; preds = %4
  %33 = load i32, ptr %11, align 4, !tbaa !9
  store i32 %33, ptr %5, align 4
  store i32 1, ptr %12, align 4
  br label %47

34:                                               ; preds = %4
  %35 = load ptr, ptr %6, align 8, !tbaa !3
  %36 = load ptr, ptr %6, align 8, !tbaa !3
  %37 = getelementptr inbounds nuw %struct.fdt_header, ptr %36, i32 0, i32 2
  %38 = call i32 @fdt32_ld(ptr noundef %37)
  %39 = load i32, ptr %10, align 4, !tbaa !9
  %40 = add i32 %38, %39
  call void @fdt_set_off_dt_struct(ptr noundef %35, i32 noundef %40)
  %41 = load ptr, ptr %6, align 8, !tbaa !3
  %42 = load ptr, ptr %6, align 8, !tbaa !3
  %43 = getelementptr inbounds nuw %struct.fdt_header, ptr %42, i32 0, i32 3
  %44 = call i32 @fdt32_ld(ptr noundef %43)
  %45 = load i32, ptr %10, align 4, !tbaa !9
  %46 = add i32 %44, %45
  call void @fdt_set_off_dt_strings(ptr noundef %41, i32 noundef %46)
  store i32 0, ptr %5, align 4
  store i32 1, ptr %12, align 4
  br label %47

47:                                               ; preds = %34, %32
  call void @llvm.lifetime.end.p0(i64 4, ptr %11) #7
  call void @llvm.lifetime.end.p0(i64 4, ptr %10) #7
  %48 = load i32, ptr %5, align 4
  ret i32 %48
}