; Function Attrs: mustprogress nofree norecurse nosync nounwind willreturn memory(argmem: readwrite) uwtable
define internal fastcc range(i32 -4, 1) i32 @fdt_splice_mem_rsv_(ptr noundef %0, ptr noundef %1, i32 noundef range(i32 0, 2) %2, i32 noundef range(i32 0, 2) %3) unnamed_addr #3 {
  %5 = shl nuw nsw i32 %2, 4
  %6 = getelementptr inbounds nuw i8, ptr %0, i64 12
  %7 = load i8, ptr %6, align 1, !tbaa !3
  %8 = zext i8 %7 to i32
  %9 = shl nuw i32 %8, 24
  %10 = getelementptr inbounds nuw i8, ptr %0, i64 13
  %11 = load i8, ptr %10, align 1, !tbaa !3
  %12 = zext i8 %11 to i32
  %13 = shl nuw nsw i32 %12, 16
  %14 = or disjoint i32 %13, %9
  %15 = getelementptr inbounds nuw i8, ptr %0, i64 14
  %16 = load i8, ptr %15, align 1, !tbaa !3
  %17 = zext i8 %16 to i32
  %18 = shl nuw nsw i32 %17, 8
  %19 = or disjoint i32 %14, %18
  %20 = getelementptr inbounds nuw i8, ptr %0, i64 15
  %21 = load i8, ptr %20, align 1, !tbaa !3
  %22 = zext i8 %21 to i32
  %23 = or disjoint i32 %19, %22
  %24 = getelementptr inbounds nuw i8, ptr %0, i64 32
  %25 = load i8, ptr %24, align 1, !tbaa !3
  %26 = zext i8 %25 to i32
  %27 = shl nuw i32 %26, 24
  %28 = getelementptr inbounds nuw i8, ptr %0, i64 33
  %29 = load i8, ptr %28, align 1, !tbaa !3
  %30 = zext i8 %29 to i32
  %31 = shl nuw nsw i32 %30, 16
  %32 = or disjoint i32 %31, %27
  %33 = getelementptr inbounds nuw i8, ptr %0, i64 34
  %34 = load i8, ptr %33, align 1, !tbaa !3
  %35 = zext i8 %34 to i32
  %36 = shl nuw nsw i32 %35, 8
  %37 = or disjoint i32 %32, %36
  %38 = getelementptr inbounds nuw i8, ptr %0, i64 35
  %39 = load i8, ptr %38, align 1, !tbaa !3
  %40 = zext i8 %39 to i32
  %41 = or disjoint i32 %37, %40
  %42 = add i32 %41, %23
  %43 = sext i32 %42 to i64
  %44 = getelementptr inbounds i8, ptr %0, i64 %43
  %45 = zext nneg i32 %5 to i64
  %46 = getelementptr inbounds nuw i8, ptr %1, i64 %45
  %47 = icmp ugt ptr %46, %44
  %48 = icmp ult ptr %1, %0
  %or.cond32.i = or i1 %48, %47
  br i1 %or.cond32.i, label %fdt_splice_.exit.thread, label %49

49:                                               ; preds = %4
  %50 = sub nsw i64 0, %45
  %51 = shl nuw nsw i32 %3, 4
  %52 = getelementptr inbounds i8, ptr %44, i64 %50
  %53 = zext nneg i32 %51 to i64
  %54 = getelementptr inbounds nuw i8, ptr %52, i64 %53
  %55 = icmp ult ptr %54, %0
  br i1 %55, label %fdt_splice_.exit.thread, label %56

56:                                               ; preds = %49
  %57 = getelementptr inbounds nuw i8, ptr %0, i64 4
  %58 = load i8, ptr %57, align 1, !tbaa !3
  %59 = zext i8 %58 to i64
  %60 = shl nuw nsw i64 %59, 24
  %61 = getelementptr inbounds nuw i8, ptr %0, i64 5
  %62 = load i8, ptr %61, align 1, !tbaa !3
  %63 = zext i8 %62 to i64
  %64 = shl nuw nsw i64 %63, 16
  %65 = or disjoint i64 %64, %60
  %66 = getelementptr inbounds nuw i8, ptr %0, i64 6
  %67 = load i8, ptr %66, align 1, !tbaa !3
  %68 = zext i8 %67 to i64
  %69 = shl nuw nsw i64 %68, 8
  %70 = or disjoint i64 %65, %69
  %71 = getelementptr inbounds nuw i8, ptr %0, i64 7
  %72 = load i8, ptr %71, align 1, !tbaa !3
  %73 = zext i8 %72 to i64
  %74 = or disjoint i64 %70, %73
  %75 = getelementptr inbounds nuw i8, ptr %0, i64 %74
  %76 = icmp ugt ptr %54, %75
  br i1 %76, label %fdt_splice_.exit.thread, label %77

77:                                               ; preds = %56
  %78 = getelementptr inbounds nuw i8, ptr %1, i64 %53
  %79 = ptrtoint ptr %44 to i64
  %80 = ptrtoint ptr %1 to i64
  %81 = add i64 %45, %80
  %82 = sub i64 %79, %81
  tail call void @llvm.memmove.p0.p0.i64(ptr align 1 %78, ptr align 1 %46, i64 %82, i1 false)
  %83 = sub nsw i32 %3, %2
  %84 = shl nsw i32 %83, 4
  %85 = getelementptr inbounds nuw i8, ptr %0, i64 8
  %86 = load i8, ptr %85, align 1, !tbaa !3
  %87 = zext i8 %86 to i32
  %88 = shl nuw i32 %87, 24
  %89 = getelementptr inbounds nuw i8, ptr %0, i64 9
  %90 = load i8, ptr %89, align 1, !tbaa !3
  %91 = zext i8 %90 to i32
  %92 = shl nuw nsw i32 %91, 16
  %93 = or disjoint i32 %92, %88
  %94 = getelementptr inbounds nuw i8, ptr %0, i64 10
  %95 = load i8, ptr %94, align 1, !tbaa !3
  %96 = zext i8 %95 to i32
  %97 = shl nuw nsw i32 %96, 8
  %98 = or disjoint i32 %93, %97
  %99 = getelementptr inbounds nuw i8, ptr %0, i64 11
  %100 = load i8, ptr %99, align 1, !tbaa !3
  %101 = zext i8 %100 to i32
  %102 = or disjoint i32 %98, %101
  %103 = add i32 %102, %84
  %rev.i.i = tail call noundef i32 @llvm.bswap.i32(i32 %103)
  store i32 %rev.i.i, ptr %85, align 4, !tbaa !13
  %104 = load i8, ptr %6, align 1, !tbaa !3
  %105 = zext i8 %104 to i32
  %106 = shl nuw i32 %105, 24
  %107 = load i8, ptr %10, align 1, !tbaa !3
  %108 = zext i8 %107 to i32
  %109 = shl nuw nsw i32 %108, 16
  %110 = or disjoint i32 %109, %106
  %111 = load i8, ptr %15, align 1, !tbaa !3
  %112 = zext i8 %111 to i32
  %113 = shl nuw nsw i32 %112, 8
  %114 = or disjoint i32 %110, %113
  %115 = load i8, ptr %20, align 1, !tbaa !3
  %116 = zext i8 %115 to i32
  %117 = or disjoint i32 %114, %116
  %118 = add i32 %117, %84
  %rev.i.i15 = tail call noundef i32 @llvm.bswap.i32(i32 %118)
  store i32 %rev.i.i15, ptr %6, align 4, !tbaa !14
  br label %fdt_splice_.exit.thread

fdt_splice_.exit.thread:                          ; preds = %56, %49, %4, %77
  %.0 = phi i32 [ 0, %77 ], [ -3, %56 ], [ -4, %49 ], [ -4, %4 ]
  ret i32 %.0
}